Certificate:
    Data:
        Version: 3 (0x2)
        Serial Number:
            34:ee:34:63:d3:63:a5:63:e2:f0:31:15:08:2b:a6:01
        Signature Algorithm: sha256WithRSAEncryption
        Issuer: CN=admin
        Validity
            Not Before: Feb  7 10:29:53 2026 GMT
            Not After : May 12 10:29:53 2028 GMT
        Subject: CN=admin
        Subject Public Key Info:
            Public Key Algorithm: rsaEncryption
                Public-Key: (2048 bit)
                Modulus:
                    00:df:e4:9c:fb:bf:df:b8:4f:ce:5e:b0:40:93:31:
                    95:9c:4b:e7:d3:59:46:41:ba:49:77:8a:fa:76:bc:
                    0c:50:30:bf:c3:72:2e:8f:05:6b:c9:d2:42:cb:ee:
                    ba:a9:3e:e0:b2:6e:82:bb:56:ea:a6:3e:92:59:41:
                    21:66:f2:e2:4a:c8:17:1a:d5:68:ce:c1:27:78:8f:
                    9f:39:3a:70:83:b7:ec:4c:f2:eb:16:52:96:5f:16:
                    bb:88:a8:ba:5e:0c:93:a1:2b:0b:77:e7:1c:66:7b:
                    2f:1a:1f:6f:fe:b2:16:f0:ba:8b:41:e6:3c:cb:16:
                    cc:8b:bc:e3:36:da:7d:dc:c4:78:c2:11:0d:7f:93:
                    96:a9:91:39:7e:b7:17:1f:84:3c:cd:67:5b:95:d7:
                    c5:2e:ac:e5:95:5f:bf:58:e6:ba:8b:4c:1d:84:97:
                    84:84:3e:ae:bc:7f:64:0f:14:fa:05:8c:79:f0:74:
                    0d:f7:a1:b5:b5:19:50:35:2c:89:94:7e:97:cb:49:
                    eb:36:48:f2:1a:d2:d1:ad:b0:49:5a:e3:0c:98:85:
                    b8:18:de:e9:ce:2d:31:9b:66:60:62:af:d7:7f:f6:
                    71:ad:70:a2:ba:55:52:30:79:cf:f7:23:b3:2e:d5:
                    3d:a4:b2:6a:4e:b5:fb:73:a9:e5:f2:45:7f:9c:58:
                    3a:0f
                Exponent: 65537 (0x10001)
        X509v3 extensions:
            X509v3 Basic Constraints: 
                CA:FALSE
            X509v3 Subject Key Identifier: 
                ED:38:57:C2:04:15:0A:5A:7A:31:8B:8C:47:24:D3:5D:5A:40:EA:A9
            X509v3 Authority Key Identifier: 
                keyid:34:FD:E0:99:A0:6B:77:0B:32:74:72:E2:80:52:1C:28:8F:37:BB:57
                DirName:/CN=admin
                serial:65:E6:73:17:72:CA:EF:6F:5E:38:4D:15:61:94:2E:85:2D:69:02:50
            X509v3 Extended Key Usage: 
                TLS Web Client Authentication
            X509v3 Key Usage: 
                Digital Signature
    Signature Algorithm: sha256WithRSAEncryption
    Signature Value:
        d1:84:cd:f6:26:90:99:83:76:10:a9:a4:db:86:5b:b7:75:e8:
        85:d1:8a:3e:98:f5:8f:26:cd:b4:9f:85:ba:d4:01:f1:47:e2:
        d8:21:e4:93:6c:4b:97:a2:6e:97:11:ad:03:df:af:5e:4a:82:
        fc:4e:52:32:8c:f0:ab:63:3c:27:f5:94:9f:9e:97:f3:6f:60:
        27:e0:ed:3a:ea:5d:0c:97:48:3b:45:cf:bf:1c:40:8f:de:72:
        e9:cc:8b:5d:58:5f:8b:ec:50:3c:7f:82:12:82:f3:ef:8d:e7:
        49:b2:c0:9e:1e:7c:a5:07:44:36:31:42:88:ec:e6:01:bc:01:
        97:79:7f:a4:25:92:e6:a5:11:e9:77:f9:4f:56:00:d9:9b:95:
        32:75:20:46:62:ec:0f:85:ab:33:5e:ad:d2:59:f5:37:c3:f0:
        f4:82:6b:30:f8:ae:83:e7:df:e0:65:56:86:91:16:a1:c9:3e:
        39:11:5b:10:18:42:1a:ac:10:65:52:58:31:8b:7d:f4:66:99:
        67:d6:18:c6:ba:21:0d:79:16:c3:7f:9e:4c:cc:69:89:90:d6:
        09:ab:7f:9b:61:b8:22:8d:cb:ad:52:c3:da:d1:ff:2a:af:36:
        94:8a:4d:3b:e5:38:2c:ac:a6:54:8b:8e:73:b5:b9:ec:6a:dd:
        b7:dc:3d:0d
-----BEGIN CERTIFICATE-----
MIIDRzCCAi+gAwIBAgIQNO40Y9NjpWPi8DEVCCumATANBgkqhkiG9w0BAQsFADAQ
MQ4wDAYDVQQDDAVhZG1pbjAeFw0yNjAyMDcxMDI5NTNaFw0yODA1MTIxMDI5NTNa
MBAxDjAMBgNVBAMMBWFkbWluMIIBIjANBgkqhkiG9w0BAQEFAAOCAQ8AMIIBCgKC
AQEA3+Sc+7/fuE/OXrBAkzGVnEvn01lGQbpJd4r6drwMUDC/w3IujwVrydJCy+66
qT7gsm6Cu1bqpj6SWUEhZvLiSsgXGtVozsEneI+fOTpwg7fsTPLrFlKWXxa7iKi6
XgyToSsLd+ccZnsvGh9v/rIW8LqLQeY8yxbMi7zjNtp93MR4whENf5OWqZE5frcX
H4Q8zWdbldfFLqzllV+/WOa6i0wdhJeEhD6uvH9kDxT6BYx58HQN96G1tRlQNSyJ
lH6Xy0nrNkjyGtLRrbBJWuMMmIW4GN7pzi0xm2ZgYq/Xf/ZxrXCiulVSMHnP9yOz
LtU9pLJqTrX7c6nl8kV/nFg6DwIDAQABo4GcMIGZMAkGA1UdEwQCMAAwHQYDVR0O
BBYEFO04V8IEFQpaejGLjEck011aQOqpMEsGA1UdIwREMEKAFDT94Jmga3cLMnRy
4oBSHCiPN7tXoRSkEjAQMQ4wDAYDVQQDDAVhZG1pboIUZeZzF3LK729eOE0VYZQu
hS1pAlAwEwYDVR0lBAwwCgYIKwYBBQUHAwIwCwYDVR0PBAQDAgeAMA0GCSqGSIb3
DQEBCwUAA4IBAQDRhM32JpCZg3YQqaTbhlu3deiF0Yo+mPWPJs20n4W61AHxR+LY
IeSTbEuXom6XEa0D369eSoL8TlIyjPCrYzwn9ZSfnpfzb2An4O066l0Ml0g7Rc+/
HECP3nLpzItdWF+L7FA8f4ISgvPvjedJssCeHnylB0Q2MUKI7OYBvAGXeX+kJZLm
pRHpd/lPVgDZm5UydSBGYuwPhaszXq3SWfU3w/D0gmsw+K6D59/gZVaGkRahyT45
EVsQGEIarBBlUlgxi330Zpln1hjGuiENeRbDf55MzGmJkNYJq3+bYbgijcutUsPa
0f8qrzaUik075TgsrKZUi45ztbnsat233D0N
-----END CERTIFICATE-----
