Certificate:
    Data:
        Version: 3 (0x2)
        Serial Number:
            39:0a:ed:09:86:95:dd:bc:d2:2b:49:12:c8:21:af:cc
        Signature Algorithm: sha256WithRSAEncryption
        Issuer: CN=admin
        Validity
            Not Before: Feb  7 10:29:47 2026 GMT
            Not After : May 12 10:29:47 2028 GMT
        Subject: CN=admin
        Subject Public Key Info:
            Public Key Algorithm: rsaEncryption
                Public-Key: (2048 bit)
                Modulus:
                    00:be:a5:bc:a9:b6:84:79:a3:30:0f:dd:a2:43:d2:
                    fc:e7:a1:3a:51:7f:92:10:0e:80:b1:c6:77:ac:f7:
                    fd:d1:37:4e:c8:76:68:58:2e:68:1d:3e:c3:a7:b2:
                    09:05:d9:2b:7f:20:5a:05:1f:19:d7:4e:b7:6e:9d:
                    f1:55:df:80:b4:f1:e6:ad:cc:73:40:7a:38:81:b5:
                    54:76:0b:f1:76:17:2c:b4:b6:8c:a5:04:c7:db:ee:
                    ac:bc:6c:2d:cf:e6:8d:40:aa:56:e9:ff:26:e0:2e:
                    58:85:f8:59:7f:e8:c3:31:9b:b9:27:54:0f:83:dd:
                    47:ca:f2:9b:be:b7:e6:7e:90:ed:42:a9:34:c7:a7:
                    d4:57:b2:72:3f:e9:d8:04:85:11:57:2f:f3:f3:44:
                    ca:49:39:bf:91:8b:b9:29:a7:86:f8:13:ef:0f:5a:
                    40:6f:c3:91:3b:64:b7:81:f1:66:45:e9:c8:68:6b:
                    0a:9b:c6:59:3d:af:74:23:63:56:66:02:56:2a:ae:
                    d0:e1:4a:50:90:f2:d3:74:11:a0:06:b8:15:05:dd:
                    4a:62:54:65:fb:fe:6e:d7:5f:f3:4d:85:46:0a:72:
                    de:c4:9d:15:3f:c6:49:9c:4f:68:c6:75:a5:10:cd:
                    26:73:29:a7:bf:39:c9:64:5e:95:8a:fb:4b:64:b8:
                    df:dd
                Exponent: 65537 (0x10001)
        X509v3 extensions:
            X509v3 Basic Constraints: 
                CA:FALSE
            X509v3 Subject Key Identifier: 
                F2:2A:7A:05:26:9B:AD:21:4D:8B:F6:2D:EC:28:9E:97:04:2C:91:94
            X509v3 Authority Key Identifier: 
                keyid:34:FD:E0:99:A0:6B:77:0B:32:74:72:E2:80:52:1C:28:8F:37:BB:57
                DirName:/CN=admin
                serial:65:E6:73:17:72:CA:EF:6F:5E:38:4D:15:61:94:2E:85:2D:69:02:50
            X509v3 Extended Key Usage: 
                TLS Web Server Authentication
            X509v3 Key Usage: 
                Digital Signature, Key Encipherment
            X509v3 Subject Alternative Name: 
                DNS:admin
    Signature Algorithm: sha256WithRSAEncryption
    Signature Value:
        1a:2a:33:d6:8f:6c:f7:14:5b:b9:4d:ae:d1:8c:51:8e:43:5c:
        c9:f1:e8:71:ae:85:ca:11:d3:be:74:f6:83:d4:cd:79:d4:2b:
        42:10:b2:78:5f:80:5b:2e:8e:2b:dd:37:34:7f:40:f9:fc:7f:
        f9:44:a8:d5:3f:30:41:d6:74:2b:be:f6:28:b5:7e:e7:05:19:
        77:33:de:91:01:bf:14:b8:bc:68:63:d0:46:0d:22:8e:21:1b:
        cc:94:03:c5:8b:18:4c:fd:19:bd:14:d5:c7:af:23:0d:22:57:
        f8:52:3a:82:7d:d3:15:ac:01:4a:c3:e4:53:3a:2b:be:2f:52:
        53:19:0e:b0:4f:88:f4:1e:a2:db:34:1f:4c:95:f0:11:88:a4:
        42:a4:07:dc:7f:1b:39:b2:da:7b:04:cd:65:9f:01:fd:da:ad:
        11:f1:f9:5b:05:71:e5:58:b8:9d:23:6f:7c:8f:5f:89:7d:54:
        d3:f4:82:d9:d8:ad:69:c4:07:e0:69:45:bf:92:a1:9b:aa:7f:
        97:d3:41:a2:25:26:5e:4b:b9:d4:2d:dd:d6:71:38:62:73:d6:
        8c:db:f6:9c:61:78:13:f7:88:6d:e7:4e:17:ff:7c:f9:3a:c9:
        82:c3:81:e6:3c:13:38:52:b2:8a:45:c6:86:23:9b:6a:72:0f:
        59:63:1e:bb
-----BEGIN CERTIFICATE-----
MIIDWTCCAkGgAwIBAgIQOQrtCYaV3bzSK0kSyCGvzDANBgkqhkiG9w0BAQsFADAQ
MQ4wDAYDVQQDDAVhZG1pbjAeFw0yNjAyMDcxMDI5NDdaFw0yODA1MTIxMDI5NDda
MBAxDjAMBgNVBAMMBWFkbWluMIIBIjANBgkqhkiG9w0BAQEFAAOCAQ8AMIIBCgKC
AQEAvqW8qbaEeaMwD92iQ9L856E6UX+SEA6AscZ3rPf90TdOyHZoWC5oHT7Dp7IJ
BdkrfyBaBR8Z1063bp3xVd+AtPHmrcxzQHo4gbVUdgvxdhcstLaMpQTH2+6svGwt
z+aNQKpW6f8m4C5YhfhZf+jDMZu5J1QPg91HyvKbvrfmfpDtQqk0x6fUV7JyP+nY
BIURVy/z80TKSTm/kYu5KaeG+BPvD1pAb8ORO2S3gfFmRenIaGsKm8ZZPa90I2NW
ZgJWKq7Q4UpQkPLTdBGgBrgVBd1KYlRl+/5u11/zTYVGCnLexJ0VP8ZJnE9oxnWl
EM0mcymnvznJZF6VivtLZLjf3QIDAQABo4GuMIGrMAkGA1UdEwQCMAAwHQYDVR0O
BBYEFPIqegUmm60hTYv2LewonpcELJGUMEsGA1UdIwREMEKAFDT94Jmga3cLMnRy
4oBSHCiPN7tXoRSkEjAQMQ4wDAYDVQQDDAVhZG1pboIUZeZzF3LK729eOE0VYZQu
hS1pAlAwEwYDVR0lBAwwCgYIKwYBBQUHAwEwCwYDVR0PBAQDAgWgMBAGA1UdEQQJ
MAeCBWFkbWluMA0GCSqGSIb3DQEBCwUAA4IBAQAaKjPWj2z3FFu5Ta7RjFGOQ1zJ
8ehxroXKEdO+dPaD1M151CtCELJ4X4BbLo4r3Tc0f0D5/H/5RKjVPzBB1nQrvvYo
tX7nBRl3M96RAb8UuLxoY9BGDSKOIRvMlAPFixhM/Rm9FNXHryMNIlf4UjqCfdMV
rAFKw+RTOiu+L1JTGQ6wT4j0HqLbNB9MlfARiKRCpAfcfxs5stp7BM1lnwH92q0R
8flbBXHlWLidI298j1+JfVTT9ILZ2K1pxAfgaUW/kqGbqn+X00GiJSZeS7nULd3W
cThic9aM2/acYXgT94ht504X/3z5OsmCw4HmPBM4UrKKRcaGI5tqcg9ZYx67
-----END CERTIFICATE-----
